
 Start  Stop   Length Name                   Class
 00000H 0045FH 00460H _TEXT                  CODE
 00460H 010BAH 00C5BH CT_TEXT                CODE
 010C0H 027A1H 016E2H CTVDSK                 CODE
 027B0H 0307AH 008CBH SBFM_MIDI_CODE         CODE
 03080H 05477H 023F8H SBMIDI_TEXT            CODE
 05478H 054DBH 00064H BASICSAY_TEXT          CODE
 054DCH 05AE3H 00608H CODE                   CODE
 05AF0H 0611EH 0062FH DOSCALL_CODE           BC_CODE
 06120H 06120H 00000H FAR_DATA               FAR_DATA
 06120H 06120H 00000H FAR_BSS                FAR_BSS
 06120H 09436H 03317H NULL                   BEGDATA
 09438H 0947FH 00048H _DATA                  DATA
 09480H 0948DH 0000EH CDATA                  DATA
 0948EH 0948EH 00000H XIB                    DATA
 0948EH 0948EH 00000H XI                     DATA
 0948EH 0948EH 00000H XIE                    DATA
 0948EH 0948EH 00000H XPB                    DATA
 0948EH 0948EH 00000H XP                     DATA
 0948EH 0948EH 00000H XPE                    DATA
 0948EH 0948EH 00000H XCB                    DATA
 0948EH 0948EH 00000H XC                     DATA
 0948EH 0948EH 00000H XCE                    DATA
 0948EH 09499H 0000CH DBDATA                 DATA
 0949AH 094A3H 0000AH _BSS                   DATA
 094A4H 094A4H 00000H CONST                  CONST
 094B0H 094B0H 00000H BR_DATA                BLANK
 094B0H 094B0H 00000H BR_SKYS                BLANK
 094B0H 094B0H 00000H COMMON                 BLANK
 094B0H 0963DH 0018EH BC_DATA                BC_VARS
 0963EH 09643H 00006H NMALLOC                BC_VARS
 09644H 09644H 00000H ENMALLOC               BC_VARS
 09644H 09644H 00000H BC_FT                  BC_SEGS
 09650H 096A5H 00056H BC_CN                  BC_SEGS
 096B0H 096B2H 00003H BC_DS                  BC_SEGS
 096B4H 096B4H 00000H BC_SAB                 BC_SEGS
 096B4H 096BBH 00008H BC_SA                  BC_SEGS
 096BCH 096BCH 00000H _BSS                   BSS
 096BCH 096BCH 00000H XOB                    BSS
 096BCH 096BCH 00000H XO                     BSS
 096BCH 096BCH 00000H XOE                    BSS
 096C0H 096C0H 00000H STACK                  STACK
 096C0H 0A9D4H 01315H SYMBOL                 

 Origin   Group
 0612:0   DGROUP

  Address         Publics by Name

 0612:00CB       $AC
 0612:00CB       $DAC
 05AF:0033       ALLOCMEM
 054D:01BE       B$$RCH
 054D:01C4       B$$TCR
 054D:01CA       B$$WCH
 054D:01B8       B$$WCLF
 0000:01B3       B$?EVT
 0612:00F6       b$?TYP
 0612:00CF       B$AC
 0000:0060       B$ASSN
 0000:01F0       B$ATN4
 0000:01F4       B$ATN8
 0000:0260       B$BEEP
 0000:0263       B$BLOD
 054D:0194       B$BREAK_CHK
 0000:0266       B$BSAV
 054D:010C       B$CALCLINE
 0612:0113       b$cCSubs
 0000:0269       B$CDIR
 0000:0020       B$CEND
 0000:0023       B$CENP
 0000:000C  Abs  b$cfileln
 0612:006A       b$cfilex
 0000:0010       B$CGAUSED
 0612:00C7       b$chaindata_len
 0612:00C6       b$Chaining
 0000:0063       B$CHAN
 0000:0066       B$CHOU
 0000:0069       B$CLOS
 0000:01E1       B$CMI4
 0612:0115       b$cNonQBIFrames
 054D:024E       B$CONERR
 0000:01F8       B$COS4
 0000:01FC       B$COS8
 0000:01B6       B$CPI4
 0000:026C       B$CSRL
 0612:00E9       b$CtrlFlags
 0612:00EE       b$curframe
 0612:00F0       b$curlevel
 0612:00CB       B$DAC
 0000:006C       B$DDIM
 0000:0010       b$devused
 0000:026F       B$DSEG
 0000:0272       B$DSG0
 0000:006F       B$DSKI
 0000:0072       B$DVI4
 0000:0275       B$DWID
 0000:0010       B$EGAUSED
 054D:022E       B$END
 054D:000C       B$ENFA
 054D:006D       B$ENRA
 054D:005C       B$ENRD
 054D:00D7       B$ENSA
 054D:00C6       B$ENSD
 0000:0278       B$EPE0
 0000:027B       B$EPE1
 0000:027E       B$EPE2
 0000:0281       B$ERAS
 0000:0284       B$ERDS
 0000:0287       B$ERDV
 0612:0102       b$erradr
 0612:010C       b$errlin
 0612:0106       b$errmod
 0612:010A       b$errnum
 054D:0156       B$ERR_AFE
 054D:0144       B$ERR_BFM
 054D:014A       B$ERR_DV0
 054D:014D       B$ERR_FC
 054D:0147       B$ERR_IFN
 054D:013E       B$ERR_NOL
 054D:0153       B$ERR_OM
 054D:0160       B$ERR_OSS
 054D:0159       B$ERR_OV
 054D:0150       B$ERR_RG
 0000:028A       B$ESG0
 0000:028D       B$ESG1
 0000:0290       B$ESG2
 0000:0293       B$ETC0
 0000:0296       B$ETC1
 0000:0299       B$ETC2
 0000:029C       B$ETK0
 0000:029F       B$ETK1
 0000:02A2       B$ETK2
 0000:02A5       B$ETL0
 0000:02A8       B$ETL1
 0000:02AB       B$ETL2
 0000:02AE       B$ETS0
 0000:02B1       B$ETS1
 0000:02B4       B$ETS2
 0000:02B7       B$ETT0
 0000:02BA       B$ETT1
 0000:02BD       B$ETT2
 0000:0378       B$EUE0
 0000:037C       B$EUE1
 0000:0380       B$EUE2
 0000:01B9       B$EVCK
 0612:00F2       b$EVTRETV
 054D:001A       B$EXFA
 0000:0200       B$EXP4
 0000:0204       B$EXP8
 054D:003E       B$EXSA
 0000:02C0       B$FASC
 0000:02C3       B$FATR
 0000:01BC       B$FBIN
 0000:0075       B$FCHR
 0000:0078       B$FCMD
 0000:01E5       B$FCMP
 0000:007B       B$FCVD
 0000:007E       B$FCVI
 0000:0081       B$FCVL
 0000:0084       B$FCVS
 0000:0087       B$FDAT
 0000:008A       B$FEOF
 0000:02C6       B$FEVI
 0000:02C9       B$FEVS
 054D:0217       B$FHDealloc
 0612:00E1       b$FHDULFarData
 0612:00D9       b$FHDULNearData
 0000:02CC       B$FHEX
 054D:0202       B$FHHighAlloc
 054D:0209       B$FHHighDealloc
 0000:02CF       B$FICT
 0000:02D2       B$FIEL
 0000:0208       B$FIL2
 0000:020C       B$FILD
 0000:02D5       B$FILS
 0000:008D       B$FINP
 0000:0210       B$FIS2
 0000:0214       B$FIST
 0000:0218       B$FIX4
 0000:021C       B$FIX8
 0000:0090       B$FLDP
 0000:0093       B$FLEN
 0000:02D8       B$FLOC
 0000:02DB       B$FLOF
 0000:0096       B$FMDF
 0000:0099       B$FMID
 0000:009C       B$FMKD
 0000:009F       B$FMKI
 0000:00A2       B$FMKL
 0000:00A5       B$FMKS
 0000:00A8       B$FMSF
 0000:02DE       B$FOCT
 054D:019A       B$FOUTBX
 0000:02E1       B$FPEN
 0000:00AB       B$FPLY
 0000:02E4       B$FPOS
 054D:00BD       B$FRAMESETUP
 0000:00AE       B$FREF
 0000:00B1       B$FRI2
 0000:00B4       B$FRSD
 0000:00B7       B$FSCN
 0000:02E7       B$FSEK
 0000:02EA       B$FSHL
 0000:00BA       B$FSPC
 0000:00BD       B$FSTG
 0000:00C0       B$FTAB
 0000:00C3       B$FTIM
 0000:0220       B$FUST
 0000:00C6       B$FVAL
 0000:00C9       B$FWID
 0000:02ED       B$GET1
 0000:02F0       B$GET2
 0000:02F3       B$GET3
 0000:02F6       B$GET4
 054D:00A0       B$GETMODCODE
 054D:0236       B$GetNmalloc
 0000:0010       B$GRPUSED
 0000:01BF       B$HARY
 0000:0010       B$HRCUSED
 054D:023E       B$IEND
 054D:0210       B$IFHAlloc
 0000:00CC       B$INKY
 0612:010E       b$inonerr
 0000:00CF       B$INPP
 0000:00D2       B$INS2
 0000:00D5       B$INS3
 0000:0224       B$INT4
 0000:0228       B$INT8
 054D:0226       B$IStop
 0000:00D8       B$KFUN
 0000:02F9       B$KILL
 0000:00DB       B$KMAP
 0000:00DE       B$LBND
 0000:00E1       B$LCAS
 0000:00E4       B$LDFS
 0000:00E7       B$LEFT
 054D:01B2       B$LHFDBLOC
 054D:01A0       B$LHLOCFDB
 0000:01C2       B$LINA
 0000:00EA       B$LNIN
 0000:02FC       B$LOCK
 0000:00ED       B$LOCT
 0000:022C       B$LOG4
 0000:0230       B$LOG8
 0000:00F0       B$LPOS
 0000:00F3       B$LPRT
 0612:00F8       b$LPTFDB
 0000:00F6       B$LSET
 0000:00F9       B$LTRM
 0000:00FC       B$LWID
 0612:00EC       b$mainframe
 0000:00FF       B$MCVD
 0000:0102       B$MCVS
 0000:02FF       B$MDIR
 0000:0105       B$MUI4
 0000:0302       B$NAME
 0612:00BC       b$nmalloc_end
 0612:00BA       b$nmalloc_start
 0000:0010       B$OLIUSED
 0000:0305       B$ONCA
 0000:0308       B$ONKA
 0000:030B       B$ONLA
 0000:030E       B$ONPA
 0000:0311       B$ONSA
 0000:0314       B$ONSG
 0000:0317       B$ONTA
 0000:0384       B$ONUE
 0000:0108       B$OOPN
 0000:010B       B$OPEN
 0612:00B8       b$pBC_SAB
 0000:010E       B$PCI2
 0000:0111       B$PCI4
 0000:0114       B$PCR4
 0000:0117       B$PCR8
 0000:011A       B$PCSD
 0000:031A       B$PEEK
 0000:011D       B$PEI2
 0000:0120       B$PEI4
 0612:00B4       b$pend
 0612:00B6       b$pendchk
 0000:0123       B$PEOS
 0000:0126       B$PER4
 0000:0129       B$PER8
 0000:012C       B$PESD
 0000:031D       B$PINP
 0000:0323       B$POKE
 0000:0320       B$POUT
 0000:0234       B$POW4
 0000:0238       B$POW8
 0000:012F       B$PSI2
 0000:0132       B$PSI4
 0000:0135       B$PSR4
 0000:0138       B$PSR8
 0000:013B       B$PSSD
 0612:010F       b$PTRFIL
 0612:00FE       b$PUDS
 0612:00BE       b$pULtoRTFar
 0612:00C2       b$pULtoRTNear
 0000:0326       B$PUT1
 0000:0329       B$PUT2
 0000:032C       B$PUT3
 0000:032F       B$PUT4
 054D:01EE       B$PUTNUM
 0000:013E       B$RDI2
 0000:0141       B$RDI4
 0000:0332       B$RDIM
 0000:0335       B$RDIR
 0000:0144       B$RDR4
 0000:0147       B$RDR8
 0000:014A       B$RDSD
 0000:014D       B$REST
 054D:01A6       B$RES_SETUP
 0000:0150       B$RGHT
 0000:0153       B$RMI4
 0000:0338       B$RND0
 0000:033B       B$RND1
 0000:033E       B$RNZ0
 0000:0341       B$RNZP
 0000:0156       B$RSET
 0000:01C5       B$RSTA
 0000:01C9       B$RSTB
 0612:00C6       b$RTMOverlayStart
 0000:0159       B$RTRM
 054D:016D       B$RTtoULFar
 054D:0165       B$RTtoULNear
 054D:01FB       B$RUNERR
 0000:035C       B$RUNL
 0000:015C       B$SADD
 0000:015F       B$SASS
 0000:0162       B$SCAT
 0000:01CD       B$SCHN
 0000:01D1       B$SCLR
 0000:0165       B$SCLS
 0000:01D5       B$SCMP
 0000:01D9       B$SCPF
 0000:0168       B$SCPY
 0000:016B       B$SDAT
 0612:00C9       b$seg
 0000:0344       B$SENV
 0000:0347       B$SERR
 0000:034A       B$SETM
 054D:0246       B$SetUEvent
 0000:023C       B$SGN4
 0000:0240       B$SGN8
 0000:034D       B$SICT
 0000:0244       B$SIN4
 0000:0248       B$SIN8
 0000:0388       B$SLEP
 0000:016E       B$SMID
 0000:0171       B$SOND
 0000:0174       B$SPAC
 0000:0177       B$SPLY
 0000:0350       B$SSEK
 0000:0353       B$SSHL
 054D:01D0       B$STALCTMP
 054D:01DC       B$STDALC
 054D:01E8       B$STDALCALLTMP
 054D:01E2       B$STDALCTMP
 0000:017A       B$STDL
 0000:017D       B$STI2
 0000:0180       B$STI4
 0000:0356       B$STIK
 0000:0359       B$STIM
 054D:0104       B$STOP
 0000:0183       B$STR4
 0000:0186       B$STR8
 0000:0189       B$STRI
 0000:018C       B$STRS
 0000:018F       B$SWP2
 0000:0192       B$SWP4
 0000:0195       B$SWP8
 0000:0198       B$SWPN
 0000:01DD       B$SWSD
 0000:024C       B$TAN4
 0000:0250       B$TAN8
 0000:019B       B$TIMR
 0000:0360       B$TROF
 0000:0364       B$TRON
 0612:00F7       b$TTYP
 054D:01D6       B$TTY_SOUT
 054D:01AC       B$TYPUI
 0000:019E       B$UBND
 0000:01A1       B$UCAS
 054D:055D       B$ULAllocDataImage
 0612:00D5       b$ULDataLength
 054D:05CB       B$ULDataRelease
 0612:00D7       b$ULDataStart
 054D:02B8       B$ULGetCommon
 054D:0386       B$ULGetData
 054D:0311       B$ULGetProc
 054D:0389       B$ULGetSeg
 054D:03F5       B$ULInit
 054D:021E       B$ULReload
 0612:00D3       b$ULSymSeg
 054D:03E9       B$ULTerm
 0000:0368       B$Undef1
 0000:036C       B$Undef2
 0000:0370       B$Undef3
 0000:0374       B$Undef4
 0612:00EA       b$userflags
 0000:01A4       B$USNG
 0612:00F6       B$VALTYP
 0000:01A7       B$VARP
 0000:0010       B$VGAUSED
 0612:00F6       b$VTYP
 0000:01AA       B$WAIT
 0000:01AD       B$WIDT
 0000:01B0       B$WRIT
 0612:0102       b_erradr
 0612:010C       b_errlin
 0612:0106       b_errmod
 0612:010A       b_errnum
 0612:00D3       b_ULSymSeg
 0612:332E       b_ULVars
 0046:0B7C       CTIOADDX
 0046:0C08       CTMUSIC
 0046:0BF0       CTVADDX
 010C:0000       CTVDSK_DRV
 0046:0C18       CTVOICE
 0046:0144       DISABLE_8259
 05AF:0080       DOSCLOSE
 05AF:011D       DOSCREATE
 0046:0B90       DOSINT21
 05AF:00AE       DOSOPEN
 05AF:0192       DOSREAD
 05AF:02CD       DOSWRITE
 0046:012C       ENABLE_8259
 0000:FE32  Abs  FIARQQ
 0000:0E32  Abs  FICRQQ
 0000:5C32  Abs  FIDRQQ
 0000:1632  Abs  FIERQQ
 0046:0B52       FILESIZE
 05AF:0403       FINDFILE
 0000:0632  Abs  FISRQQ
 0000:A23D  Abs  FIWRQQ
 0000:4000  Abs  FJARQQ
 0000:C000  Abs  FJCRQQ
 0000:8000  Abs  FJSRQQ
 05AF:0478       FREEMEM
 0046:0119       GET_INT_VECTOR
 05AF:04A6       LOADDRV
 0046:0B45       OFFADJ
 0046:0016       PROG_DMA_TRANSFER
 0046:0000       SBC_20BIT_ADDX
 0612:3318       SBC_INT_MASK_DATA
 0046:00A3       SBC_READ_DSP
 0046:0054       SBC_READ_DSP_TIME
 0046:00C1       SBC_WRITE_DSP
 0046:007B       SBC_WRITE_DSP_TIME
 027B:0864       SBFM_MIDI_CODE_RTN
 027B:0814       SBFM_MIDI_SERVICE
 0046:0C4A       SBKEDITI
 0046:0C28       SBKVERMA
 0046:0C39       SBKVERMI
 0308:23B4       SBMIDI_RTN_SERVICE
 0046:0B2E       SEGADJ
 054D:060E       SetUEvent
 0046:0104       SET_INT_VECTOR
 0612:0000       STKHQQ
 0547:0008       _basicsay
 0000:0392       _brkctl
 0046:062A       _ctvd_break_loop
 0046:065D       _ctvd_buffer_addx
 0046:0618       _ctvd_continue
 0046:05EB       _ctvd_drv_error
 0046:05F4       _ctvd_ext_error
 0046:05A6       _ctvd_init
 0046:064A       _ctvd_input
 0046:05FF       _ctvd_output
 0046:060F       _ctvd_pause
 0046:063A       _ctvd_speaker
 0046:0621       _ctvd_stop
 0046:05E2       _ctvd_terminate
 0046:03E7       _ctvm_break_loop
 0046:03D8       _ctvm_continue
 0046:031B       _ctvm_init
 0046:0388       _ctvm_input
 0046:0305       _ctvm_intr_num
 0046:02EF       _ctvm_io_addx
 0046:036E       _ctvm_output
 0046:03C9       _ctvm_pause
 0046:033E       _ctvm_speaker
 0046:0354       _ctvm_status_addx
 0046:03AB       _ctvm_stop
 0046:03BA       _ctvm_terminate
 0046:02E0       _ctvm_version
 0046:03FE       _ct_card_here
 0612:331C       _ct_int_num
 0612:331A       _ct_io_addx
 0612:3320       _ct_music_status
 0046:02B2       _ct_scan_card
 0612:331E       _ct_voice_status
 0612:359C       _edata
 0612:35A0       _end
 0612:009E       _environ
 0612:0077       _errno
 0000:0449       _execve
 0000:038C       _exit
 0000:0010       _main
 0612:332C       _sbclib_edition
 0612:332B       _sbclib_version_major
 0612:332A       _sbclib_version_minor
 0046:03FE       _sbc_check_card
 0046:0290       _sbc_dac_spk
 0046:00E0       _sbc_dac_spk_status
 0046:00F2       _sbc_direct_adc
 0046:0576       _sbc_dsp_reset
 0046:015A       _sbc_sampling_rate
 0046:02B2       _sbc_scan_card
 0046:0184       _sbc_scan_int
 0046:003C       _sbc_version
 0046:0826       _sbfd_control_change
 0046:07B6       _sbfd_init
 0046:07BF       _sbfd_instrument
 0046:07D2       _sbfd_music_off
 0046:07FB       _sbfd_note_off
 0046:07E4       _sbfd_note_on
 0046:07D2       _sbfd_off_music
 0046:0812       _sbfd_program_change
 0046:07DB       _sbfd_reset
 0046:083D       _sbfd_setmode
 0046:078A       _sbfm_channel_map
 0046:07AA       _sbfm_event_addx
 0046:0791       _sbfm_fading
 0046:0674       _sbfm_init
 0046:06EF       _sbfm_instrument
 0046:0746       _sbfm_pause_music
 0046:06DE       _sbfm_play_music
 0046:075C       _sbfm_read_status
 0046:0703       _sbfm_reset
 0046:0751       _sbfm_resume_music
 0046:071C       _sbfm_song_speed
 0046:06CD       _sbfm_status_addx
 0046:072A       _sbfm_stop_music
 0046:070E       _sbfm_sys_speed
 0046:0776       _sbfm_terminate
 0046:0738       _sbfm_transpose
 0046:0731       _sbfm_version
 0046:088A       _sbmidi_get_input
 0046:0864       _sbmidi_out_longmsg
 0046:084E       _sbmidi_out_shortmsg
 0046:0881       _sbmidi_start_input
 0046:0893       _sbmidi_stop_input
 0046:0A28       _sbts_dict_del
 0046:0A4F       _sbts_dict_dump
 0046:09F2       _sbts_dict_ins
 0046:08C7       _sbts_init
 0046:09C9       _sbts_init_dict
 0046:0985       _sbts_parser
 0046:0927       _sbts_say
 0046:094E       _sbts_settings
 0046:0A89       _sbts_speakf
 0046:0ACD       _sbts_speakm
 0046:0B11       _sbts_unload
 0000:0449       _spawnve
 0000:0378       _TEXT_END
 0000:01F0       _TEXT_START
 0612:3322       _voice_drv
 0612:0002       __aaltstkovr
 0612:005C       __abrkp
 0612:000C       __abrktb
 0612:005C       __abrktbe
 0612:005E       __acfinfo
 0612:00A8       __acmdln
 0612:00AA       __acmdseg
 0000:9876  Abs  __acrtused
 0000:D6D6  Abs  __aDBdoswp
 0612:00AC       __aenvseg
 0612:000A       __aexit_rtn
 0612:006B       __aintdiv
 0000:0045       __amsg_exit
 0612:0000       __anullsize
 0612:0117       __aseglo
 0612:0006       __asizds
 0612:0008       __atopsp
 0000:0010       __aulstart
 0612:00B8       __bpBC_SAB
 054D:01F4       __BRUNERR
 0000:0391       __cexit
 0612:00A0       __child
 0000:002A       __chkstk
 0000:004E       __cintDIV
 0612:0082       __doserrno
 0612:007F       __dosvermajor
 0612:0080       __dosverminor
 0000:038C       __exit
 0612:006F       __fac
 0000:003B       __FMSG_TEXT
 0000:0000  Abs  __fpmath
 0000:0026       __fpreset
 0000:0000  Abs  __fpsignal
 0000:0000  Abs  __fptaskdata
 0000:0032       __fptrap
 0612:00AF       __intno
 0612:0084       __nfile
 0000:002E       __nullcheck
 0612:0082       __oserr
 0612:0086       __osfile
 0612:007F       __osmajor
 0612:0080       __osminor
 0612:0081       __osmode
 0612:007F       __osversion
 0612:00AE       __ovlflag
 0612:00B0       __ovlvec
 0612:00A2       __pgmptr
 0612:007D       __psp
 0612:007B       __pspadr
 0612:0079       __umaskval
 0612:3376       ___aDBcallbk
 0612:3374       ___aDBexit
 0612:3372       ___aDBrterr
 0612:3370       ___aDBswpchk
 0612:336E       ___aDBswpflg
 0612:009A       ___argc
 0612:009C       ___argv

  Address         Publics by Value

 0000:0000  Abs  __fpmath
 0000:0000  Abs  __fpsignal
 0000:0000  Abs  __fptaskdata
 0000:000C  Abs  b$cfileln
 0000:0010       B$CGAUSED
 0000:0010       b$devused
 0000:0010       B$HRCUSED
 0000:0010       B$GRPUSED
 0000:0010       B$OLIUSED
 0000:0010       B$EGAUSED
 0000:0010       B$VGAUSED
 0000:0010       _main
 0000:0010       __aulstart
 0000:0020       B$CEND
 0000:0023       B$CENP
 0000:0026       __fpreset
 0000:002A       __chkstk
 0000:002E       __nullcheck
 0000:0032       __fptrap
 0000:003B       __FMSG_TEXT
 0000:0045       __amsg_exit
 0000:004E       __cintDIV
 0000:0060       B$ASSN
 0000:0063       B$CHAN
 0000:0066       B$CHOU
 0000:0069       B$CLOS
 0000:006C       B$DDIM
 0000:006F       B$DSKI
 0000:0072       B$DVI4
 0000:0075       B$FCHR
 0000:0078       B$FCMD
 0000:007B       B$FCVD
 0000:007E       B$FCVI
 0000:0081       B$FCVL
 0000:0084       B$FCVS
 0000:0087       B$FDAT
 0000:008A       B$FEOF
 0000:008D       B$FINP
 0000:0090       B$FLDP
 0000:0093       B$FLEN
 0000:0096       B$FMDF
 0000:0099       B$FMID
 0000:009C       B$FMKD
 0000:009F       B$FMKI
 0000:00A2       B$FMKL
 0000:00A5       B$FMKS
 0000:00A8       B$FMSF
 0000:00AB       B$FPLY
 0000:00AE       B$FREF
 0000:00B1       B$FRI2
 0000:00B4       B$FRSD
 0000:00B7       B$FSCN
 0000:00BA       B$FSPC
 0000:00BD       B$FSTG
 0000:00C0       B$FTAB
 0000:00C3       B$FTIM
 0000:00C6       B$FVAL
 0000:00C9       B$FWID
 0000:00CC       B$INKY
 0000:00CF       B$INPP
 0000:00D2       B$INS2
 0000:00D5       B$INS3
 0000:00D8       B$KFUN
 0000:00DB       B$KMAP
 0000:00DE       B$LBND
 0000:00E1       B$LCAS
 0000:00E4       B$LDFS
 0000:00E7       B$LEFT
 0000:00EA       B$LNIN
 0000:00ED       B$LOCT
 0000:00F0       B$LPOS
 0000:00F3       B$LPRT
 0000:00F6       B$LSET
 0000:00F9       B$LTRM
 0000:00FC       B$LWID
 0000:00FF       B$MCVD
 0000:0102       B$MCVS
 0000:0105       B$MUI4
 0000:0108       B$OOPN
 0000:010B       B$OPEN
 0000:010E       B$PCI2
 0000:0111       B$PCI4
 0000:0114       B$PCR4
 0000:0117       B$PCR8
 0000:011A       B$PCSD
 0000:011D       B$PEI2
 0000:0120       B$PEI4
 0000:0123       B$PEOS
 0000:0126       B$PER4
 0000:0129       B$PER8
 0000:012C       B$PESD
 0000:012F       B$PSI2
 0000:0132       B$PSI4
 0000:0135       B$PSR4
 0000:0138       B$PSR8
 0000:013B       B$PSSD
 0000:013E       B$RDI2
 0000:0141       B$RDI4
 0000:0144       B$RDR4
 0000:0147       B$RDR8
 0000:014A       B$RDSD
 0000:014D       B$REST
 0000:0150       B$RGHT
 0000:0153       B$RMI4
 0000:0156       B$RSET
 0000:0159       B$RTRM
 0000:015C       B$SADD
 0000:015F       B$SASS
 0000:0162       B$SCAT
 0000:0165       B$SCLS
 0000:0168       B$SCPY
 0000:016B       B$SDAT
 0000:016E       B$SMID
 0000:0171       B$SOND
 0000:0174       B$SPAC
 0000:0177       B$SPLY
 0000:017A       B$STDL
 0000:017D       B$STI2
 0000:0180       B$STI4
 0000:0183       B$STR4
 0000:0186       B$STR8
 0000:0189       B$STRI
 0000:018C       B$STRS
 0000:018F       B$SWP2
 0000:0192       B$SWP4
 0000:0195       B$SWP8
 0000:0198       B$SWPN
 0000:019B       B$TIMR
 0000:019E       B$UBND
 0000:01A1       B$UCAS
 0000:01A4       B$USNG
 0000:01A7       B$VARP
 0000:01AA       B$WAIT
 0000:01AD       B$WIDT
 0000:01B0       B$WRIT
 0000:01B3       B$?EVT
 0000:01B6       B$CPI4
 0000:01B9       B$EVCK
 0000:01BC       B$FBIN
 0000:01BF       B$HARY
 0000:01C2       B$LINA
 0000:01C5       B$RSTA
 0000:01C9       B$RSTB
 0000:01CD       B$SCHN
 0000:01D1       B$SCLR
 0000:01D5       B$SCMP
 0000:01D9       B$SCPF
 0000:01DD       B$SWSD
 0000:01E1       B$CMI4
 0000:01E5       B$FCMP
 0000:01F0       _TEXT_START
 0000:01F0       B$ATN4
 0000:01F4       B$ATN8
 0000:01F8       B$COS4
 0000:01FC       B$COS8
 0000:0200       B$EXP4
 0000:0204       B$EXP8
 0000:0208       B$FIL2
 0000:020C       B$FILD
 0000:0210       B$FIS2
 0000:0214       B$FIST
 0000:0218       B$FIX4
 0000:021C       B$FIX8
 0000:0220       B$FUST
 0000:0224       B$INT4
 0000:0228       B$INT8
 0000:022C       B$LOG4
 0000:0230       B$LOG8
 0000:0234       B$POW4
 0000:0238       B$POW8
 0000:023C       B$SGN4
 0000:0240       B$SGN8
 0000:0244       B$SIN4
 0000:0248       B$SIN8
 0000:024C       B$TAN4
 0000:0250       B$TAN8
 0000:0260       B$BEEP
 0000:0263       B$BLOD
 0000:0266       B$BSAV
 0000:0269       B$CDIR
 0000:026C       B$CSRL
 0000:026F       B$DSEG
 0000:0272       B$DSG0
 0000:0275       B$DWID
 0000:0278       B$EPE0
 0000:027B       B$EPE1
 0000:027E       B$EPE2
 0000:0281       B$ERAS
 0000:0284       B$ERDS
 0000:0287       B$ERDV
 0000:028A       B$ESG0
 0000:028D       B$ESG1
 0000:0290       B$ESG2
 0000:0293       B$ETC0
 0000:0296       B$ETC1
 0000:0299       B$ETC2
 0000:029C       B$ETK0
 0000:029F       B$ETK1
 0000:02A2       B$ETK2
 0000:02A5       B$ETL0
 0000:02A8       B$ETL1
 0000:02AB       B$ETL2
 0000:02AE       B$ETS0
 0000:02B1       B$ETS1
 0000:02B4       B$ETS2
 0000:02B7       B$ETT0
 0000:02BA       B$ETT1
 0000:02BD       B$ETT2
 0000:02C0       B$FASC
 0000:02C3       B$FATR
 0000:02C6       B$FEVI
 0000:02C9       B$FEVS
 0000:02CC       B$FHEX
 0000:02CF       B$FICT
 0000:02D2       B$FIEL
 0000:02D5       B$FILS
 0000:02D8       B$FLOC
 0000:02DB       B$FLOF
 0000:02DE       B$FOCT
 0000:02E1       B$FPEN
 0000:02E4       B$FPOS
 0000:02E7       B$FSEK
 0000:02EA       B$FSHL
 0000:02ED       B$GET1
 0000:02F0       B$GET2
 0000:02F3       B$GET3
 0000:02F6       B$GET4
 0000:02F9       B$KILL
 0000:02FC       B$LOCK
 0000:02FF       B$MDIR
 0000:0302       B$NAME
 0000:0305       B$ONCA
 0000:0308       B$ONKA
 0000:030B       B$ONLA
 0000:030E       B$ONPA
 0000:0311       B$ONSA
 0000:0314       B$ONSG
 0000:0317       B$ONTA
 0000:031A       B$PEEK
 0000:031D       B$PINP
 0000:0320       B$POUT
 0000:0323       B$POKE
 0000:0326       B$PUT1
 0000:0329       B$PUT2
 0000:032C       B$PUT3
 0000:032F       B$PUT4
 0000:0332       B$RDIM
 0000:0335       B$RDIR
 0000:0338       B$RND0
 0000:033B       B$RND1
 0000:033E       B$RNZ0
 0000:0341       B$RNZP
 0000:0344       B$SENV
 0000:0347       B$SERR
 0000:034A       B$SETM
 0000:034D       B$SICT
 0000:0350       B$SSEK
 0000:0353       B$SSHL
 0000:0356       B$STIK
 0000:0359       B$STIM
 0000:035C       B$RUNL
 0000:0360       B$TROF
 0000:0364       B$TRON
 0000:0368       B$Undef1
 0000:036C       B$Undef2
 0000:0370       B$Undef3
 0000:0374       B$Undef4
 0000:0378       _TEXT_END
 0000:0378       B$EUE0
 0000:037C       B$EUE1
 0000:0380       B$EUE2
 0000:0384       B$ONUE
 0000:0388       B$SLEP
 0000:038C       __exit
 0000:038C       _exit
 0000:0391       __cexit
 0000:0392       _brkctl
 0000:0449       _execve
 0000:0449       _spawnve
 0046:0000       SBC_20BIT_ADDX
 0046:0016       PROG_DMA_TRANSFER
 0046:003C       _sbc_version
 0046:0054       SBC_READ_DSP_TIME
 0046:007B       SBC_WRITE_DSP_TIME
 0046:00A3       SBC_READ_DSP
 0046:00C1       SBC_WRITE_DSP
 0046:00E0       _sbc_dac_spk_status
 0046:00F2       _sbc_direct_adc
 0046:0104       SET_INT_VECTOR
 0046:0119       GET_INT_VECTOR
 0046:012C       ENABLE_8259
 0046:0144       DISABLE_8259
 0046:015A       _sbc_sampling_rate
 0046:0184       _sbc_scan_int
 0000:0632  Abs  FISRQQ
 0046:0290       _sbc_dac_spk
 0046:02B2       _sbc_scan_card
 0046:02B2       _ct_scan_card
 0046:02E0       _ctvm_version
 0046:02EF       _ctvm_io_addx
 0046:0305       _ctvm_intr_num
 0046:031B       _ctvm_init
 0046:033E       _ctvm_speaker
 0046:0354       _ctvm_status_addx
 0046:036E       _ctvm_output
 0046:0388       _ctvm_input
 0046:03AB       _ctvm_stop
 0046:03BA       _ctvm_terminate
 0046:03C9       _ctvm_pause
 0046:03D8       _ctvm_continue
 0046:03E7       _ctvm_break_loop
 0046:03FE       _sbc_check_card
 0046:03FE       _ct_card_here
 0046:0576       _sbc_dsp_reset
 0046:05A6       _ctvd_init
 0046:05E2       _ctvd_terminate
 0046:05EB       _ctvd_drv_error
 0046:05F4       _ctvd_ext_error
 0046:05FF       _ctvd_output
 0046:060F       _ctvd_pause
 0046:0618       _ctvd_continue
 0046:0621       _ctvd_stop
 0046:062A       _ctvd_break_loop
 0046:063A       _ctvd_speaker
 0046:064A       _ctvd_input
 0046:065D       _ctvd_buffer_addx
 0046:0674       _sbfm_init
 0046:06CD       _sbfm_status_addx
 0046:06DE       _sbfm_play_music
 0046:06EF       _sbfm_instrument
 0046:0703       _sbfm_reset
 0046:070E       _sbfm_sys_speed
 0046:071C       _sbfm_song_speed
 0046:072A       _sbfm_stop_music
 0046:0731       _sbfm_version
 0046:0738       _sbfm_transpose
 0046:0746       _sbfm_pause_music
 0046:0751       _sbfm_resume_music
 0046:075C       _sbfm_read_status
 0046:0776       _sbfm_terminate
 0046:078A       _sbfm_channel_map
 0046:0791       _sbfm_fading
 0046:07AA       _sbfm_event_addx
 0046:07B6       _sbfd_init
 0046:07BF       _sbfd_instrument
 0046:07D2       _sbfd_off_music
 0046:07D2       _sbfd_music_off
 0046:07DB       _sbfd_reset
 0046:07E4       _sbfd_note_on
 0046:07FB       _sbfd_note_off
 0046:0812       _sbfd_program_change
 0046:0826       _sbfd_control_change
 0046:083D       _sbfd_setmode
 0046:084E       _sbmidi_out_shortmsg
 0046:0864       _sbmidi_out_longmsg
 0046:0881       _sbmidi_start_input
 0046:088A       _sbmidi_get_input
 0046:0893       _sbmidi_stop_input
 0046:08C7       _sbts_init
 0046:0927       _sbts_say
 0046:094E       _sbts_settings
 0046:0985       _sbts_parser
 0046:09C9       _sbts_init_dict
 0000:0E32  Abs  FICRQQ
 0046:09F2       _sbts_dict_ins
 0046:0A28       _sbts_dict_del
 0046:0A4F       _sbts_dict_dump
 0046:0A89       _sbts_speakf
 0046:0ACD       _sbts_speakm
 0046:0B11       _sbts_unload
 0046:0B2E       SEGADJ
 0046:0B45       OFFADJ
 0046:0B52       FILESIZE
 0046:0B7C       CTIOADDX
 0046:0B90       DOSINT21
 0046:0BF0       CTVADDX
 0046:0C08       CTMUSIC
 0046:0C18       CTVOICE
 0046:0C28       SBKVERMA
 0046:0C39       SBKVERMI
 0046:0C4A       SBKEDITI
 010C:0000       CTVDSK_DRV
 0000:1632  Abs  FIERQQ
 027B:0814       SBFM_MIDI_SERVICE
 027B:0864       SBFM_MIDI_CODE_RTN
 0000:4000  Abs  FJARQQ
 0308:23B4       SBMIDI_RTN_SERVICE
 0547:0008       _basicsay
 054D:000C       B$ENFA
 054D:001A       B$EXFA
 054D:003E       B$EXSA
 054D:005C       B$ENRD
 054D:006D       B$ENRA
 054D:00A0       B$GETMODCODE
 054D:00BD       B$FRAMESETUP
 054D:00C6       B$ENSD
 054D:00D7       B$ENSA
 054D:0104       B$STOP
 054D:010C       B$CALCLINE
 054D:013E       B$ERR_NOL
 054D:0144       B$ERR_BFM
 054D:0147       B$ERR_IFN
 054D:014A       B$ERR_DV0
 054D:014D       B$ERR_FC
 054D:0150       B$ERR_RG
 054D:0153       B$ERR_OM
 054D:0156       B$ERR_AFE
 054D:0159       B$ERR_OV
 054D:0160       B$ERR_OSS
 054D:0165       B$RTtoULNear
 054D:016D       B$RTtoULFar
 054D:0194       B$BREAK_CHK
 054D:019A       B$FOUTBX
 054D:01A0       B$LHLOCFDB
 054D:01A6       B$RES_SETUP
 054D:01AC       B$TYPUI
 054D:01B2       B$LHFDBLOC
 054D:01B8       B$$WCLF
 054D:01BE       B$$RCH
 054D:01C4       B$$TCR
 054D:01CA       B$$WCH
 054D:01D0       B$STALCTMP
 054D:01D6       B$TTY_SOUT
 054D:01DC       B$STDALC
 054D:01E2       B$STDALCTMP
 054D:01E8       B$STDALCALLTMP
 054D:01EE       B$PUTNUM
 054D:01F4       __BRUNERR
 054D:01FB       B$RUNERR
 054D:0202       B$FHHighAlloc
 054D:0209       B$FHHighDealloc
 054D:0210       B$IFHAlloc
 054D:0217       B$FHDealloc
 054D:021E       B$ULReload
 054D:0226       B$IStop
 054D:022E       B$END
 054D:0236       B$GetNmalloc
 054D:023E       B$IEND
 054D:0246       B$SetUEvent
 054D:024E       B$CONERR
 054D:02B8       B$ULGetCommon
 054D:0311       B$ULGetProc
 054D:0386       B$ULGetData
 054D:0389       B$ULGetSeg
 054D:03E9       B$ULTerm
 054D:03F5       B$ULInit
 054D:055D       B$ULAllocDataImage
 054D:05CB       B$ULDataRelease
 054D:060E       SetUEvent
 05AF:0033       ALLOCMEM
 05AF:0080       DOSCLOSE
 05AF:00AE       DOSOPEN
 05AF:011D       DOSCREATE
 0000:5C32  Abs  FIDRQQ
 05AF:0192       DOSREAD
 05AF:02CD       DOSWRITE
 05AF:0403       FINDFILE
 05AF:0478       FREEMEM
 05AF:04A6       LOADDRV
 0612:0000       __anullsize
 0612:0000       STKHQQ
 0612:0002       __aaltstkovr
 0612:0006       __asizds
 0612:0008       __atopsp
 0612:000A       __aexit_rtn
 0612:000C       __abrktb
 0612:005C       __abrktbe
 0612:005C       __abrkp
 0612:005E       __acfinfo
 0612:006A       b$cfilex
 0612:006B       __aintdiv
 0612:006F       __fac
 0612:0077       _errno
 0612:0079       __umaskval
 0612:007B       __pspadr
 0612:007D       __psp
 0612:007F       __osversion
 0612:007F       __osmajor
 0612:007F       __dosvermajor
 0612:0080       __osminor
 0612:0080       __dosverminor
 0612:0081       __osmode
 0612:0082       __doserrno
 0612:0082       __oserr
 0612:0084       __nfile
 0612:0086       __osfile
 0612:009A       ___argc
 0612:009C       ___argv
 0612:009E       _environ
 0612:00A0       __child
 0612:00A2       __pgmptr
 0612:00A8       __acmdln
 0612:00AA       __acmdseg
 0612:00AC       __aenvseg
 0612:00AE       __ovlflag
 0612:00AF       __intno
 0612:00B0       __ovlvec
 0612:00B4       b$pend
 0612:00B6       b$pendchk
 0612:00B8       __bpBC_SAB
 0612:00B8       b$pBC_SAB
 0612:00BA       b$nmalloc_start
 0612:00BC       b$nmalloc_end
 0612:00BE       b$pULtoRTFar
 0612:00C2       b$pULtoRTNear
 0612:00C6       b$RTMOverlayStart
 0612:00C6       b$Chaining
 0612:00C7       b$chaindata_len
 0612:00C9       b$seg
 0612:00CB       B$DAC
 0612:00CB       $DAC
 0612:00CB       $AC
 0612:00CF       B$AC
 0612:00D3       b_ULSymSeg
 0612:00D3       b$ULSymSeg
 0612:00D5       b$ULDataLength
 0612:00D7       b$ULDataStart
 0612:00D9       b$FHDULNearData
 0612:00E1       b$FHDULFarData
 0612:00E9       b$CtrlFlags
 0612:00EA       b$userflags
 0612:00EC       b$mainframe
 0612:00EE       b$curframe
 0612:00F0       b$curlevel
 0612:00F2       b$EVTRETV
 0612:00F6       b$?TYP
 0612:00F6       b$VTYP
 0612:00F6       B$VALTYP
 0612:00F7       b$TTYP
 0612:00F8       b$LPTFDB
 0612:00FE       b$PUDS
 0612:0102       b$erradr
 0612:0102       b_erradr
 0612:0106       b_errmod
 0612:0106       b$errmod
 0612:010A       b$errnum
 0612:010A       b_errnum
 0612:010C       b_errlin
 0612:010C       b$errlin
 0612:010E       b$inonerr
 0612:010F       b$PTRFIL
 0612:0113       b$cCSubs
 0612:0115       b$cNonQBIFrames
 0612:0117       __aseglo
 0000:8000  Abs  FJSRQQ
 0612:3318       SBC_INT_MASK_DATA
 0612:331A       _ct_io_addx
 0612:331C       _ct_int_num
 0612:331E       _ct_voice_status
 0612:3320       _ct_music_status
 0612:3322       _voice_drv
 0612:332A       _sbclib_version_minor
 0612:332B       _sbclib_version_major
 0612:332C       _sbclib_edition
 0612:332E       b_ULVars
 0612:336E       ___aDBswpflg
 0612:3370       ___aDBswpchk
 0612:3372       ___aDBrterr
 0612:3374       ___aDBexit
 0612:3376       ___aDBcallbk
 0612:359C       _edata
 0612:35A0       _end
 0000:9876  Abs  __acrtused
 0000:A23D  Abs  FIWRQQ
 0000:C000  Abs  FJCRQQ
 0000:D6D6  Abs  __aDBdoswp
 0000:FE32  Abs  FIARQQ

Program entry point at 096C:0000

Line numbers for QBSBC.LIB(basicsay.c) segment BASICSAY_TEXT

     5 0547:0008    11 0547:0010    12 0547:0020    14 0547:0023
    15 0547:0028    17 0547:0031    18 0547:003E    20 0547:0052
    21 0547:0059    22 0547:0067